target datalayout = "e-m:e-p270:32:32-p271:32:32-p272:64:64-i64:64-i128:128-f80:128-n8:16:32:64-S128"
target triple = "x86_64-pc-linux-gnu"

%struct.lzma_next_coder_s = type { ptr, i64, i64, ptr, ptr, ptr, ptr, ptr, ptr, ptr }
%struct.lzma_alone_coder = type { %struct.lzma_next_coder_s, i32, i64, [13 x i8] }

; Function Attrs: nounwind uwtable
define internal i32 @alone_encode(ptr noundef %0, ptr noundef %1, ptr noalias noundef %2, ptr noalias noundef %3, i64 noundef %4, ptr noalias noundef %5, ptr noalias noundef %6, i64 noundef %7, i32 noundef %8) #0 {
  %10 = alloca i32, align 4
  %11 = alloca ptr, align 8
  %12 = alloca ptr, align 8
  %13 = alloca ptr, align 8
  %14 = alloca ptr, align 8
  %15 = alloca i64, align 8
  %16 = alloca ptr, align 8
  %17 = alloca ptr, align 8
  %18 = alloca i64, align 8
  %19 = alloca i32, align 4
  %20 = alloca ptr, align 8
  %21 = alloca i32, align 4
  store ptr %0, ptr %11, align 8, !tbaa !4
  store ptr %1, ptr %12, align 8, !tbaa !4
  store ptr %2, ptr %13, align 8, !tbaa !37
  store ptr %3, ptr %14, align 8, !tbaa !38
  store i64 %4, ptr %15, align 8, !tbaa !27
  store ptr %5, ptr %16, align 8, !tbaa !37
  store ptr %6, ptr %17, align 8, !tbaa !38
  store i64 %7, ptr %18, align 8, !tbaa !27
  store i32 %8, ptr %19, align 4, !tbaa !8
  call void @llvm.lifetime.start.p0(i64 8, ptr %20) #7
  %22 = load ptr, ptr %11, align 8, !tbaa !4
  store ptr %22, ptr %20, align 8, !tbaa !4
  br label %23

23:                                               ; preds = %69, %9
  %24 = load ptr, ptr %17, align 8, !tbaa !38
  %25 = load i64, ptr %24, align 8, !tbaa !27
  %26 = load i64, ptr %18, align 8, !tbaa !27
  %27 = icmp ult i64 %25, %26
  br i1 %27, label %28, label %70

28:                                               ; preds = %23
  %29 = load ptr, ptr %20, align 8, !tbaa !4
  %30 = getelementptr inbounds nuw %struct.lzma_alone_coder, ptr %29, i32 0, i32 1
  %31 = load i32, ptr %30, align 8, !tbaa !28
  switch i32 %31, label %68 [
    i32 0, label %32
    i32 1, label %50
  ]

32:                                               ; preds = %28
  %33 = load ptr, ptr %20, align 8, !tbaa !4
  %34 = getelementptr inbounds nuw %struct.lzma_alone_coder, ptr %33, i32 0, i32 3
  %35 = getelementptr inbounds [13 x i8], ptr %34, i64 0, i64 0
  %36 = load ptr, ptr %20, align 8, !tbaa !4
  %37 = getelementptr inbounds nuw %struct.lzma_alone_coder, ptr %36, i32 0, i32 2
  %38 = load ptr, ptr %16, align 8, !tbaa !37
  %39 = load ptr, ptr %17, align 8, !tbaa !38
  %40 = load i64, ptr %18, align 8, !tbaa !27
  %41 = call i64 @lzma_bufcpy(ptr noundef %35, ptr noundef %37, i64 noundef 13, ptr noundef %38, ptr noundef %39, i64 noundef %40)
  %42 = load ptr, ptr %20, align 8, !tbaa !4
  %43 = getelementptr inbounds nuw %struct.lzma_alone_coder, ptr %42, i32 0, i32 2
  %44 = load i64, ptr %43, align 8, !tbaa !30
  %45 = icmp ult i64 %44, 13
  br i1 %45, label %46, label %47

46:                                               ; preds = %32
  store i32 0, ptr %10, align 4
  store i32 1, ptr %21, align 4
  br label %71

47:                                               ; preds = %32
  %48 = load ptr, ptr %20, align 8, !tbaa !4
  %49 = getelementptr inbounds nuw %struct.lzma_alone_coder, ptr %48, i32 0, i32 1
  store i32 1, ptr %49, align 8, !tbaa !28
  br label %69

50:                                               ; preds = %28
  %51 = load ptr, ptr %20, align 8, !tbaa !4
  %52 = getelementptr inbounds nuw %struct.lzma_alone_coder, ptr %51, i32 0, i32 0
  %53 = getelementptr inbounds nuw %struct.lzma_next_coder_s, ptr %52, i32 0, i32 3
  %54 = load ptr, ptr %53, align 8, !tbaa !40
  %55 = load ptr, ptr %20, align 8, !tbaa !4
  %56 = getelementptr inbounds nuw %struct.lzma_alone_coder, ptr %55, i32 0, i32 0
  %57 = getelementptr inbounds nuw %struct.lzma_next_coder_s, ptr %56, i32 0, i32 0
  %58 = load ptr, ptr %57, align 8, !tbaa !41
  %59 = load ptr, ptr %12, align 8, !tbaa !4
  %60 = load ptr, ptr %13, align 8, !tbaa !37
  %61 = load ptr, ptr %14, align 8, !tbaa !38
  %62 = load i64, ptr %15, align 8, !tbaa !27
  %63 = load ptr, ptr %16, align 8, !tbaa !37
  %64 = load ptr, ptr %17, align 8, !tbaa !38
  %65 = load i64, ptr %18, align 8, !tbaa !27
  %66 = load i32, ptr %19, align 4, !tbaa !8
  %67 = call i32 %54(ptr noundef %58, ptr noundef %59, ptr noundef %60, ptr noundef %61, i64 noundef %62, ptr noundef %63, ptr noundef %64, i64 noundef %65, i32 noundef %66)
  store i32 %67, ptr %10, align 4
  store i32 1, ptr %21, align 4
  br label %71

68:                                               ; preds = %28
  store i32 11, ptr %10, align 4
  store i32 1, ptr %21, align 4
  br label %71

69:                                               ; preds = %47
  br label %23, !llvm.loop !42

70:                                               ; preds = %23
  store i32 0, ptr %10, align 4
  store i32 1, ptr %21, align 4
  br label %71

71:                                               ; preds = %70, %68, %50, %46
  call void @llvm.lifetime.end.p0(i64 8, ptr %20) #7
  %72 = load i32, ptr %10, align 4
  ret i32 %72
}