; Function Attrs: nounwind uwtable
define internal i32 @alone_encode(ptr noundef %0, ptr noundef %1, ptr noalias noundef %2, ptr noalias noundef %3, i64 noundef %4, ptr noalias noundef %5, ptr noalias noundef %6, i64 noundef %7, i32 noundef %8) #0 {
  %10 = load i64, ptr %6, align 8, !tbaa !22
  %11 = icmp ult i64 %10, %7
  br i1 %11, label %.lr.ph, label %.loopexit

.lr.ph:                                           ; preds = %9
  %12 = getelementptr inbounds nuw i8, ptr %0, i64 80
  %13 = getelementptr inbounds nuw i8, ptr %0, i64 96
  %14 = getelementptr inbounds nuw i8, ptr %0, i64 88
  %.pre = load i32, ptr %12, align 8, !tbaa !23
  br label %15

15:                                               ; preds = %.lr.ph, %21
  %16 = phi i32 [ %.pre, %.lr.ph ], [ 1, %21 ]
  switch i32 %16, label %.loopexit [
    i32 0, label %17
    i32 1, label %24
  ]

17:                                               ; preds = %15
  %18 = tail call i64 @lzma_bufcpy(ptr noundef nonnull %13, ptr noundef nonnull %14, i64 noundef 13, ptr noundef %5, ptr noundef nonnull %6, i64 noundef %7) #6
  %19 = load i64, ptr %14, align 8, !tbaa !25
  %20 = icmp ult i64 %19, 13
  br i1 %20, label %.loopexit, label %21

21:                                               ; preds = %17
  store i32 1, ptr %12, align 8, !tbaa !23
  %22 = load i64, ptr %6, align 8, !tbaa !22
  %23 = icmp ult i64 %22, %7
  br i1 %23, label %15, label %.loopexit, !llvm.loop !32

24:                                               ; preds = %15
  %25 = getelementptr inbounds nuw i8, ptr %0, i64 24
  %26 = load ptr, ptr %25, align 8, !tbaa !34
  %27 = load ptr, ptr %0, align 8, !tbaa !35
  %28 = tail call i32 %26(ptr noundef %27, ptr noundef %1, ptr noundef %2, ptr noundef %3, i64 noundef %4, ptr noundef %5, ptr noundef nonnull %6, i64 noundef %7, i32 noundef %8) #6
  br label %.loopexit

.loopexit:                                        ; preds = %17, %15, %21, %9, %24
  %.0 = phi i32 [ %28, %24 ], [ 0, %9 ], [ 0, %17 ], [ 11, %15 ], [ 0, %21 ]
  ret i32 %.0
}